target datalayout = "e-m:e-p270:32:32-p271:32:32-p272:64:64-i64:64-i128:128-f80:128-n8:16:32:64-S128"
target triple = "x86_64-pc-linux-gnu"

%"struct.flatbuffers::python::Version" = type { i16, i16, i16 }

; Function Attrs: mustprogress nounwind uwtable
define dso_local noundef zeroext i1 @_ZNK11flatbuffers6python7Version7IsValidEv(ptr noundef nonnull align 2 dereferenceable(6) %0) #2 align 2 {
  %2 = alloca ptr, align 8
  store ptr %0, ptr %2, align 8, !tbaa !32
  %3 = load ptr, ptr %2, align 8
  %4 = getelementptr inbounds nuw %"struct.flatbuffers::python::Version", ptr %3, i32 0, i32 0
  %5 = load i16, ptr %4, align 2, !tbaa !34
  %6 = sext i16 %5 to i32
  %7 = icmp eq i32 %6, 0
  br i1 %7, label %18, label %8

8:                                                ; preds = %1
  %9 = getelementptr inbounds nuw %"struct.flatbuffers::python::Version", ptr %3, i32 0, i32 0
  %10 = load i16, ptr %9, align 2, !tbaa !34
  %11 = sext i16 %10 to i32
  %12 = icmp eq i32 %11, 2
  br i1 %12, label %18, label %13

13:                                               ; preds = %8
  %14 = getelementptr inbounds nuw %"struct.flatbuffers::python::Version", ptr %3, i32 0, i32 0
  %15 = load i16, ptr %14, align 2, !tbaa !34
  %16 = sext i16 %15 to i32
  %17 = icmp eq i32 %16, 3
  br i1 %17, label %18, label %28

18:                                               ; preds = %13, %8, %1
  %19 = getelementptr inbounds nuw %"struct.flatbuffers::python::Version", ptr %3, i32 0, i32 1
  %20 = load i16, ptr %19, align 2, !tbaa !37
  %21 = sext i16 %20 to i32
  %22 = icmp sge i32 %21, 0
  br i1 %22, label %23, label %28

23:                                               ; preds = %18
  %24 = getelementptr inbounds nuw %"struct.flatbuffers::python::Version", ptr %3, i32 0, i32 2
  %25 = load i16, ptr %24, align 2, !tbaa !38
  %26 = sext i16 %25 to i32
  %27 = icmp sge i32 %26, 0
  br label %28

28:                                               ; preds = %23, %18, %13
  %29 = phi i1 [ false, %18 ], [ false, %13 ], [ %27, %23 ]
  ret i1 %29
}