; Function Attrs: mustprogress nofree norecurse nosync nounwind willreturn memory(argmem: read) uwtable
define dso_local noundef zeroext i1 @_ZNK11flatbuffers6python7Version7IsValidEv(ptr noundef nonnull readonly align 2 captures(none) dereferenceable(6) %0) local_unnamed_addr #6 align 2 {
  %2 = load i16, ptr %0, align 2, !tbaa !14
  switch i16 %2, label %11 [
    i16 0, label %3
    i16 2, label %3
    i16 3, label %3
  ]

3:                                                ; preds = %1, %1, %1
  %4 = getelementptr inbounds nuw i8, ptr %0, i64 2
  %5 = load i16, ptr %4, align 2, !tbaa !17
  %6 = icmp sgt i16 %5, -1
  br i1 %6, label %7, label %11

7:                                                ; preds = %3
  %8 = getelementptr inbounds nuw i8, ptr %0, i64 4
  %9 = load i16, ptr %8, align 2, !tbaa !18
  %10 = icmp sgt i16 %9, -1
  br label %11

11:                                               ; preds = %1, %7, %3
  %12 = phi i1 [ false, %3 ], [ %10, %7 ], [ false, %1 ]
  ret i1 %12
}